target datalayout = "e-m:e-p270:32:32-p271:32:32-p272:64:64-i64:64-i128:128-f80:128-n8:16:32:64-S128"
target triple = "x86_64-pc-linux-gnu"

%struct.NFA = type { i32, i32, i8, i8, i8, i8, %union.anon, i32, i32, i32, i32, i32, i32, i32, [20 x i8] }
%union.anon = type { i16 }

; Function Attrs: nounwind uwtable
define hidden signext i8 @nfaCheckFinalState(ptr noundef %0, ptr noundef %1, ptr noundef %2, i64 noundef %3, ptr noundef %4, ptr noundef %5) #0 {
  %7 = alloca i8, align 1
  %8 = alloca ptr, align 8
  %9 = alloca ptr, align 8
  %10 = alloca ptr, align 8
  %11 = alloca i64, align 8
  %12 = alloca ptr, align 8
  %13 = alloca ptr, align 8
  %14 = alloca i32, align 4
  %15 = alloca i32, align 4
  %16 = alloca i32, align 4
  %17 = alloca i32, align 4
  %18 = alloca i32, align 4
  %19 = alloca i32, align 4
  %20 = alloca i32, align 4
  %21 = alloca i32, align 4
  %22 = alloca i32, align 4
  %23 = alloca i32, align 4
  %24 = alloca i32, align 4
  store ptr %0, ptr %8, align 8
  store ptr %1, ptr %9, align 8
  store ptr %2, ptr %10, align 8
  store i64 %3, ptr %11, align 8
  store ptr %4, ptr %12, align 8
  store ptr %5, ptr %13, align 8
  %25 = load ptr, ptr %8, align 8
  %26 = getelementptr inbounds nuw %struct.NFA, ptr %25, i32 0, i32 2
  %27 = load i8, ptr %26, align 8
  %28 = zext i8 %27 to i32
  switch i32 %28, label %174 [
    i32 0, label %29
    i32 1, label %37
    i32 2, label %45
    i32 3, label %53
    i32 4, label %61
    i32 5, label %69
    i32 6, label %77
    i32 7, label %85
    i32 8, label %93
    i32 9, label %101
    i32 10, label %109
    i32 11, label %112
    i32 12, label %115
    i32 13, label %118
    i32 14, label %121
    i32 15, label %124
    i32 16, label %127
    i32 17, label %130
    i32 18, label %138
    i32 19, label %146
    i32 20, label %154
    i32 21, label %162
    i32 22, label %165
    i32 23, label %168
    i32 24, label %171
  ]

29:                                               ; preds = %6
  %30 = load ptr, ptr %8, align 8
  %31 = load ptr, ptr %9, align 8
  %32 = load ptr, ptr %10, align 8
  %33 = load i64, ptr %11, align 8
  %34 = load ptr, ptr %12, align 8
  %35 = load ptr, ptr %13, align 8
  %36 = call signext i8 @nfaExecLimEx32_testEOD(ptr noundef %30, ptr noundef %31, ptr noundef %32, i64 noundef %33, ptr noundef %34, ptr noundef %35)
  store i8 %36, ptr %7, align 1
  br label %176

37:                                               ; preds = %6
  %38 = load ptr, ptr %8, align 8
  %39 = load ptr, ptr %9, align 8
  %40 = load ptr, ptr %10, align 8
  %41 = load i64, ptr %11, align 8
  %42 = load ptr, ptr %12, align 8
  %43 = load ptr, ptr %13, align 8
  %44 = call signext i8 @nfaExecLimEx64_testEOD(ptr noundef %38, ptr noundef %39, ptr noundef %40, i64 noundef %41, ptr noundef %42, ptr noundef %43)
  store i8 %44, ptr %7, align 1
  br label %176

45:                                               ; preds = %6
  %46 = load ptr, ptr %8, align 8
  %47 = load ptr, ptr %9, align 8
  %48 = load ptr, ptr %10, align 8
  %49 = load i64, ptr %11, align 8
  %50 = load ptr, ptr %12, align 8
  %51 = load ptr, ptr %13, align 8
  %52 = call signext i8 @nfaExecLimEx128_testEOD(ptr noundef %46, ptr noundef %47, ptr noundef %48, i64 noundef %49, ptr noundef %50, ptr noundef %51)
  store i8 %52, ptr %7, align 1
  br label %176

53:                                               ; preds = %6
  %54 = load ptr, ptr %8, align 8
  %55 = load ptr, ptr %9, align 8
  %56 = load ptr, ptr %10, align 8
  %57 = load i64, ptr %11, align 8
  %58 = load ptr, ptr %12, align 8
  %59 = load ptr, ptr %13, align 8
  %60 = call signext i8 @nfaExecLimEx256_testEOD(ptr noundef %54, ptr noundef %55, ptr noundef %56, i64 noundef %57, ptr noundef %58, ptr noundef %59)
  store i8 %60, ptr %7, align 1
  br label %176

61:                                               ; preds = %6
  %62 = load ptr, ptr %8, align 8
  %63 = load ptr, ptr %9, align 8
  %64 = load ptr, ptr %10, align 8
  %65 = load i64, ptr %11, align 8
  %66 = load ptr, ptr %12, align 8
  %67 = load ptr, ptr %13, align 8
  %68 = call signext i8 @nfaExecLimEx384_testEOD(ptr noundef %62, ptr noundef %63, ptr noundef %64, i64 noundef %65, ptr noundef %66, ptr noundef %67)
  store i8 %68, ptr %7, align 1
  br label %176

69:                                               ; preds = %6
  %70 = load ptr, ptr %8, align 8
  %71 = load ptr, ptr %9, align 8
  %72 = load ptr, ptr %10, align 8
  %73 = load i64, ptr %11, align 8
  %74 = load ptr, ptr %12, align 8
  %75 = load ptr, ptr %13, align 8
  %76 = call signext i8 @nfaExecLimEx512_testEOD(ptr noundef %70, ptr noundef %71, ptr noundef %72, i64 noundef %73, ptr noundef %74, ptr noundef %75)
  store i8 %76, ptr %7, align 1
  br label %176

77:                                               ; preds = %6
  %78 = load ptr, ptr %8, align 8
  %79 = load ptr, ptr %9, align 8
  %80 = load ptr, ptr %10, align 8
  %81 = load i64, ptr %11, align 8
  %82 = load ptr, ptr %12, align 8
  %83 = load ptr, ptr %13, align 8
  %84 = call signext i8 @nfaExecMcClellan8_testEOD(ptr noundef %78, ptr noundef %79, ptr noundef %80, i64 noundef %81, ptr noundef %82, ptr noundef %83)
  store i8 %84, ptr %7, align 1
  br label %176

85:                                               ; preds = %6
  %86 = load ptr, ptr %8, align 8
  %87 = load ptr, ptr %9, align 8
  %88 = load ptr, ptr %10, align 8
  %89 = load i64, ptr %11, align 8
  %90 = load ptr, ptr %12, align 8
  %91 = load ptr, ptr %13, align 8
  %92 = call signext i8 @nfaExecMcClellan16_testEOD(ptr noundef %86, ptr noundef %87, ptr noundef %88, i64 noundef %89, ptr noundef %90, ptr noundef %91)
  store i8 %92, ptr %7, align 1
  br label %176

93:                                               ; preds = %6
  %94 = load ptr, ptr %8, align 8
  %95 = load ptr, ptr %9, align 8
  %96 = load ptr, ptr %10, align 8
  %97 = load i64, ptr %11, align 8
  %98 = load ptr, ptr %12, align 8
  %99 = load ptr, ptr %13, align 8
  %100 = call signext i8 @nfaExecGough8_testEOD(ptr noundef %94, ptr noundef %95, ptr noundef %96, i64 noundef %97, ptr noundef %98, ptr noundef %99)
  store i8 %100, ptr %7, align 1
  br label %176

101:                                              ; preds = %6
  %102 = load ptr, ptr %8, align 8
  %103 = load ptr, ptr %9, align 8
  %104 = load ptr, ptr %10, align 8
  %105 = load i64, ptr %11, align 8
  %106 = load ptr, ptr %12, align 8
  %107 = load ptr, ptr %13, align 8
  %108 = call signext i8 @nfaExecGough16_testEOD(ptr noundef %102, ptr noundef %103, ptr noundef %104, i64 noundef %105, ptr noundef %106, ptr noundef %107)
  store i8 %108, ptr %7, align 1
  br label %176

109:                                              ; preds = %6
  store i32 0, ptr %14, align 4
  %110 = load i32, ptr %14, align 4
  %111 = trunc i32 %110 to i8
  store i8 %111, ptr %7, align 1
  br label %176

112:                                              ; preds = %6
  store i32 0, ptr %15, align 4
  %113 = load i32, ptr %15, align 4
  %114 = trunc i32 %113 to i8
  store i8 %114, ptr %7, align 1
  br label %176

115:                                              ; preds = %6
  store i32 0, ptr %16, align 4
  %116 = load i32, ptr %16, align 4
  %117 = trunc i32 %116 to i8
  store i8 %117, ptr %7, align 1
  br label %176

118:                                              ; preds = %6
  store i32 0, ptr %17, align 4
  %119 = load i32, ptr %17, align 4
  %120 = trunc i32 %119 to i8
  store i8 %120, ptr %7, align 1
  br label %176

121:                                              ; preds = %6
  store i32 0, ptr %18, align 4
  %122 = load i32, ptr %18, align 4
  %123 = trunc i32 %122 to i8
  store i8 %123, ptr %7, align 1
  br label %176

124:                                              ; preds = %6
  store i32 0, ptr %19, align 4
  %125 = load i32, ptr %19, align 4
  %126 = trunc i32 %125 to i8
  store i8 %126, ptr %7, align 1
  br label %176

127:                                              ; preds = %6
  store i32 0, ptr %20, align 4
  %128 = load i32, ptr %20, align 4
  %129 = trunc i32 %128 to i8
  store i8 %129, ptr %7, align 1
  br label %176

130:                                              ; preds = %6
  %131 = load ptr, ptr %8, align 8
  %132 = load ptr, ptr %9, align 8
  %133 = load ptr, ptr %10, align 8
  %134 = load i64, ptr %11, align 8
  %135 = load ptr, ptr %12, align 8
  %136 = load ptr, ptr %13, align 8
  %137 = call signext i8 @nfaExecSheng_testEOD(ptr noundef %131, ptr noundef %132, ptr noundef %133, i64 noundef %134, ptr noundef %135, ptr noundef %136)
  store i8 %137, ptr %7, align 1
  br label %176

138:                                              ; preds = %6
  %139 = load ptr, ptr %8, align 8
  %140 = load ptr, ptr %9, align 8
  %141 = load ptr, ptr %10, align 8
  %142 = load i64, ptr %11, align 8
  %143 = load ptr, ptr %12, align 8
  %144 = load ptr, ptr %13, align 8
  %145 = call signext i8 @nfaExecTamarama_testEOD(ptr noundef %139, ptr noundef %140, ptr noundef %141, i64 noundef %142, ptr noundef %143, ptr noundef %144)
  store i8 %145, ptr %7, align 1
  br label %176

146:                                              ; preds = %6
  %147 = load ptr, ptr %8, align 8
  %148 = load ptr, ptr %9, align 8
  %149 = load ptr, ptr %10, align 8
  %150 = load i64, ptr %11, align 8
  %151 = load ptr, ptr %12, align 8
  %152 = load ptr, ptr %13, align 8
  %153 = call signext i8 @nfaExecMcSheng8_testEOD(ptr noundef %147, ptr noundef %148, ptr noundef %149, i64 noundef %150, ptr noundef %151, ptr noundef %152)
  store i8 %153, ptr %7, align 1
  br label %176

154:                                              ; preds = %6
  %155 = load ptr, ptr %8, align 8
  %156 = load ptr, ptr %9, align 8
  %157 = load ptr, ptr %10, align 8
  %158 = load i64, ptr %11, align 8
  %159 = load ptr, ptr %12, align 8
  %160 = load ptr, ptr %13, align 8
  %161 = call signext i8 @nfaExecMcSheng16_testEOD(ptr noundef %155, ptr noundef %156, ptr noundef %157, i64 noundef %158, ptr noundef %159, ptr noundef %160)
  store i8 %161, ptr %7, align 1
  br label %176

162:                                              ; preds = %6
  store i32 0, ptr %21, align 4
  %163 = load i32, ptr %21, align 4
  %164 = trunc i32 %163 to i8
  store i8 %164, ptr %7, align 1
  br label %176

165:                                              ; preds = %6
  store i32 0, ptr %22, align 4
  %166 = load i32, ptr %22, align 4
  %167 = trunc i32 %166 to i8
  store i8 %167, ptr %7, align 1
  br label %176

168:                                              ; preds = %6
  store i32 0, ptr %23, align 4
  %169 = load i32, ptr %23, align 4
  %170 = trunc i32 %169 to i8
  store i8 %170, ptr %7, align 1
  br label %176

171:                                              ; preds = %6
  store i32 0, ptr %24, align 4
  %172 = load i32, ptr %24, align 4
  %173 = trunc i32 %172 to i8
  store i8 %173, ptr %7, align 1
  br label %176

174:                                              ; preds = %6
  br label %175

175:                                              ; preds = %174
  store i8 0, ptr %7, align 1
  br label %176

176:                                              ; preds = %175, %171, %168, %165, %162, %154, %146, %138, %130, %127, %124, %121, %118, %115, %112, %109, %101, %93, %85, %77, %69, %61, %53, %45, %37, %29
  %177 = load i8, ptr %7, align 1
  ret i8 %177
}