; Function Attrs: nounwind uwtable
define hidden signext i8 @nfaCheckFinalState(ptr noundef %0, ptr noundef %1, ptr noundef %2, i64 noundef %3, ptr noundef %4, ptr noundef %5) local_unnamed_addr #0 {
  %7 = getelementptr inbounds nuw i8, ptr %0, i64 8
  %8 = load i8, ptr %7, align 8
  switch i8 %8, label %37 [
    i8 0, label %9
    i8 1, label %11
    i8 2, label %13
    i8 3, label %15
    i8 4, label %17
    i8 5, label %19
    i8 6, label %21
    i8 7, label %23
    i8 8, label %25
    i8 9, label %27
    i8 20, label %35
    i8 19, label %33
    i8 18, label %31
    i8 17, label %29
  ]

9:                                                ; preds = %6
  %10 = tail call signext i8 @nfaExecLimEx32_testEOD(ptr noundef nonnull %0, ptr noundef %1, ptr noundef %2, i64 noundef %3, ptr noundef %4, ptr noundef %5) #3
  br label %37

11:                                               ; preds = %6
  %12 = tail call signext i8 @nfaExecLimEx64_testEOD(ptr noundef nonnull %0, ptr noundef %1, ptr noundef %2, i64 noundef %3, ptr noundef %4, ptr noundef %5) #3
  br label %37

13:                                               ; preds = %6
  %14 = tail call signext i8 @nfaExecLimEx128_testEOD(ptr noundef nonnull %0, ptr noundef %1, ptr noundef %2, i64 noundef %3, ptr noundef %4, ptr noundef %5) #3
  br label %37

15:                                               ; preds = %6
  %16 = tail call signext i8 @nfaExecLimEx256_testEOD(ptr noundef nonnull %0, ptr noundef %1, ptr noundef %2, i64 noundef %3, ptr noundef %4, ptr noundef %5) #3
  br label %37

17:                                               ; preds = %6
  %18 = tail call signext i8 @nfaExecLimEx384_testEOD(ptr noundef nonnull %0, ptr noundef %1, ptr noundef %2, i64 noundef %3, ptr noundef %4, ptr noundef %5) #3
  br label %37

19:                                               ; preds = %6
  %20 = tail call signext i8 @nfaExecLimEx512_testEOD(ptr noundef nonnull %0, ptr noundef %1, ptr noundef %2, i64 noundef %3, ptr noundef %4, ptr noundef %5) #3
  br label %37

21:                                               ; preds = %6
  %22 = tail call signext i8 @nfaExecMcClellan8_testEOD(ptr noundef nonnull %0, ptr noundef %1, ptr noundef %2, i64 noundef %3, ptr noundef %4, ptr noundef %5) #3
  br label %37

23:                                               ; preds = %6
  %24 = tail call signext i8 @nfaExecMcClellan16_testEOD(ptr noundef nonnull %0, ptr noundef %1, ptr noundef %2, i64 noundef %3, ptr noundef %4, ptr noundef %5) #3
  br label %37

25:                                               ; preds = %6
  %26 = tail call signext i8 @nfaExecGough8_testEOD(ptr noundef nonnull %0, ptr noundef %1, ptr noundef %2, i64 noundef %3, ptr noundef %4, ptr noundef %5) #3
  br label %37

27:                                               ; preds = %6
  %28 = tail call signext i8 @nfaExecGough16_testEOD(ptr noundef nonnull %0, ptr noundef %1, ptr noundef %2, i64 noundef %3, ptr noundef %4, ptr noundef %5) #3
  br label %37

29:                                               ; preds = %6
  %30 = tail call signext i8 @nfaExecSheng_testEOD(ptr noundef nonnull %0, ptr noundef %1, ptr noundef %2, i64 noundef %3, ptr noundef %4, ptr noundef %5) #3
  br label %37

31:                                               ; preds = %6
  %32 = tail call signext i8 @nfaExecTamarama_testEOD(ptr noundef nonnull %0, ptr noundef %1, ptr noundef %2, i64 noundef %3, ptr noundef %4, ptr noundef %5) #3
  br label %37

33:                                               ; preds = %6
  %34 = tail call signext i8 @nfaExecMcSheng8_testEOD(ptr noundef nonnull %0, ptr noundef %1, ptr noundef %2, i64 noundef %3, ptr noundef %4, ptr noundef %5) #3
  br label %37

35:                                               ; preds = %6
  %36 = tail call signext i8 @nfaExecMcSheng16_testEOD(ptr noundef nonnull %0, ptr noundef %1, ptr noundef %2, i64 noundef %3, ptr noundef %4, ptr noundef %5) #3
  br label %37

37:                                               ; preds = %6, %35, %33, %31, %29, %27, %25, %23, %21, %19, %17, %15, %13, %11, %9
  %.0 = phi i8 [ %36, %35 ], [ %34, %33 ], [ %32, %31 ], [ %30, %29 ], [ %28, %27 ], [ %26, %25 ], [ %24, %23 ], [ %22, %21 ], [ %20, %19 ], [ %18, %17 ], [ %16, %15 ], [ %14, %13 ], [ %12, %11 ], [ %10, %9 ], [ 0, %6 ]
  ret i8 %.0
}